; Function Attrs: mustprogress uwtable
define void @_Z15gmx_calc_comg_fPK10gmx_mtop_tPA3_fiPKibPf(ptr noundef %0, ptr noundef readonly captures(none) %1, i32 noundef %2, ptr noundef readonly captures(none) %3, i1 noundef zeroext %4, ptr noundef captures(none) %5) local_unnamed_addr #2 {
  br i1 %4, label %7, label %27

7:                                                ; preds = %6
  store float 0.000000e+00, ptr %5, align 4, !tbaa !4
  %8 = getelementptr inbounds nuw i8, ptr %5, i64 4
  store float 0.000000e+00, ptr %8, align 4, !tbaa !4
  %9 = getelementptr inbounds nuw i8, ptr %5, i64 8
  store float 0.000000e+00, ptr %9, align 4, !tbaa !4
  %10 = icmp sgt i32 %2, 0
  br i1 %10, label %.lr.ph.i, label %_Z14gmx_calc_com_fPK10gmx_mtop_tPA3_fiPKiPf.exit

.lr.ph.i:                                         ; preds = %7
  %wide.trip.count.i = zext nneg i32 %2 to i64
  br label %11

11:                                               ; preds = %11, %.lr.ph.i
  %indvars.iv.i = phi i64 [ 0, %.lr.ph.i ], [ %indvars.iv.next.i, %11 ]
  %12 = phi float [ 0.000000e+00, %.lr.ph.i ], [ %26, %11 ]
  %13 = phi float [ 0.000000e+00, %.lr.ph.i ], [ %23, %11 ]
  %14 = phi float [ 0.000000e+00, %.lr.ph.i ], [ %20, %11 ]
  %15 = getelementptr inbounds nuw i32, ptr %3, i64 %indvars.iv.i
  %16 = load i32, ptr %15, align 4, !tbaa !8
  %17 = sext i32 %16 to i64
  %18 = getelementptr inbounds [3 x float], ptr %1, i64 %17
  %19 = load float, ptr %18, align 4, !tbaa !4
  %20 = fadd float %14, %19
  %21 = getelementptr inbounds nuw i8, ptr %18, i64 4
  %22 = load float, ptr %21, align 4, !tbaa !4
  %23 = fadd float %13, %22
  %24 = getelementptr inbounds nuw i8, ptr %18, i64 8
  %25 = load float, ptr %24, align 4, !tbaa !4
  %26 = fadd float %12, %25
  store float %20, ptr %5, align 4, !tbaa !4
  store float %23, ptr %8, align 4, !tbaa !4
  store float %26, ptr %9, align 4, !tbaa !4
  %indvars.iv.next.i = add nuw nsw i64 %indvars.iv.i, 1
  %exitcond.not.i = icmp eq i64 %indvars.iv.next.i, %wide.trip.count.i
  br i1 %exitcond.not.i, label %_Z14gmx_calc_com_fPK10gmx_mtop_tPA3_fiPKiPf.exit, label %11, !llvm.loop !61

27:                                               ; preds = %6
  tail call void @_Z14gmx_calc_cog_fPK10gmx_mtop_tPA3_fiPKiPf(ptr noundef %0, ptr noundef %1, i32 noundef %2, ptr noundef %3, ptr noundef %5)
  br label %_Z14gmx_calc_com_fPK10gmx_mtop_tPA3_fiPKiPf.exit

_Z14gmx_calc_com_fPK10gmx_mtop_tPA3_fiPKiPf.exit: ; preds = %11, %7, %27
  ret void
}